target datalayout = "e-m:e-p270:32:32-p271:32:32-p272:64:64-i64:64-i128:128-f80:128-n8:16:32:64-S128"
target triple = "x86_64-pc-linux-gnu"

%struct.AVRational = type { i32, i32 }
%struct.AVChannelLayout = type { i32, i32, %union.anon, ptr }
%union.anon = type { i64 }
%struct.AVCodecContext = type { ptr, i32, i32, ptr, i32, i32, ptr, ptr, ptr, i64, i32, i32, ptr, i32, %struct.AVRational, %struct.AVRational, %struct.AVRational, i32, i32, i32, i32, i32, %struct.AVRational, i32, i32, i32, i32, i32, i32, i32, i32, i32, i32, i32, ptr, ptr, i32, float, float, float, float, float, float, float, float, float, i32, i32, i32, i32, i32, i32, i32, i32, i32, i32, i32, i32, ptr, ptr, ptr, i32, i32, i32, i32, i32, i32, i32, i32, i32, i32, %struct.AVChannelLayout, i32, i32, i32, i32, i32, i32, i32, i32, ptr, i32, i32, i32, float, float, i32, i32, i32, i32, i32, ptr, i64, i64, float, float, i32, i32, ptr, ptr, i32, i32, i32, i32, i32, ptr, ptr, ptr, ptr, i32, i32, [8 x i64], i32, i32, i32, i32, i32, i32, i32, ptr, ptr, i32, i32, i32, i32, i32, i32, i32, i32, i32, i32, ptr, ptr, i32, i32, ptr, ptr, ptr, ptr, i32, i32, i64, i32, i32, i64, ptr, i64, ptr, i32, ptr, i32 }
%struct.AVCodec = type { ptr, ptr, i32, i32, i32, i8, ptr, ptr, ptr, ptr, ptr, ptr, ptr, ptr }
%struct.AVCodecInternal = type { i32, i32, i32, ptr, ptr, ptr, ptr, ptr, ptr, ptr, i32, ptr, ptr, ptr, i32, i32, ptr, i32, ptr, ptr, i32, i32 }
%struct.FFCodec = type { %struct.AVCodec, i32, i32, ptr, ptr, ptr, ptr, %union.anon.0, ptr, ptr, ptr, ptr, ptr, ptr }
%union.anon.0 = type { ptr }

@.str.21 = private unnamed_addr constant [59 x i8] c"Ignoring attempt to flush encoder that doesn't support it\0A\00", align 1

; Function Attrs: alwaysinline nounwind uwtable
define internal ptr @ffcodec(ptr noundef %0) #3 {
  %2 = alloca ptr, align 8
  store ptr %0, ptr %2, align 8, !tbaa !19
  %3 = load ptr, ptr %2, align 8, !tbaa !19
  ret ptr %3
}

; Function Attrs: nounwind uwtable
define void @avcodec_flush_buffers(ptr noundef %0) #0 {
  %2 = alloca ptr, align 8
  %3 = alloca ptr, align 8
  %4 = alloca i32, align 4
  %5 = alloca i32, align 4
  store ptr %0, ptr %2, align 8, !tbaa !4
  call void @llvm.lifetime.start.p0(i64 8, ptr %3) #13
  %6 = load ptr, ptr %2, align 8, !tbaa !4
  %7 = getelementptr inbounds nuw %struct.AVCodecContext, ptr %6, i32 0, i32 7
  %8 = load ptr, ptr %7, align 8, !tbaa !60
  store ptr %8, ptr %3, align 8, !tbaa !59
  %9 = load ptr, ptr %2, align 8, !tbaa !4
  %10 = getelementptr inbounds nuw %struct.AVCodecContext, ptr %9, i32 0, i32 3
  %11 = load ptr, ptr %10, align 8, !tbaa !24
  %12 = call i32 @av_codec_is_encoder(ptr noundef %11)
  %13 = icmp ne i32 %12, 0
  br i1 %13, label %14, label %30

14:                                               ; preds = %1
  call void @llvm.lifetime.start.p0(i64 4, ptr %4) #13
  %15 = load ptr, ptr %2, align 8, !tbaa !4
  %16 = getelementptr inbounds nuw %struct.AVCodecContext, ptr %15, i32 0, i32 3
  %17 = load ptr, ptr %16, align 8, !tbaa !24
  %18 = getelementptr inbounds nuw %struct.AVCodec, ptr %17, i32 0, i32 4
  %19 = load i32, ptr %18, align 8, !tbaa !89
  store i32 %19, ptr %4, align 4, !tbaa !12
  %20 = load i32, ptr %4, align 4, !tbaa !12
  %21 = and i32 %20, 2097152
  %22 = icmp ne i32 %21, 0
  br i1 %22, label %25, label %23

23:                                               ; preds = %14
  %24 = load ptr, ptr %2, align 8, !tbaa !4
  call void (ptr, i32, ptr, ...) @av_log(ptr noundef %24, i32 noundef 24, ptr noundef @.str.21)
  store i32 1, ptr %5, align 4
  br label %27

25:                                               ; preds = %14
  %26 = load ptr, ptr %2, align 8, !tbaa !4
  call void @ff_encode_flush_buffers(ptr noundef %26)
  store i32 0, ptr %5, align 4
  br label %27

27:                                               ; preds = %25, %23
  call void @llvm.lifetime.end.p0(i64 4, ptr %4) #13
  %28 = load i32, ptr %5, align 4
  switch i32 %28, label %85 [
    i32 0, label %29
  ]

29:                                               ; preds = %27
  br label %32

30:                                               ; preds = %1
  %31 = load ptr, ptr %2, align 8, !tbaa !4
  call void @ff_decode_flush_buffers(ptr noundef %31)
  br label %32

32:                                               ; preds = %30, %29
  %33 = load ptr, ptr %3, align 8, !tbaa !59
  %34 = getelementptr inbounds nuw %struct.AVCodecInternal, ptr %33, i32 0, i32 17
  store i32 0, ptr %34, align 8, !tbaa !109
  %35 = load ptr, ptr %3, align 8, !tbaa !59
  %36 = getelementptr inbounds nuw %struct.AVCodecInternal, ptr %35, i32 0, i32 20
  store i32 0, ptr %36, align 8, !tbaa !110
  %37 = load ptr, ptr %3, align 8, !tbaa !59
  %38 = getelementptr inbounds nuw %struct.AVCodecInternal, ptr %37, i32 0, i32 19
  %39 = load ptr, ptr %38, align 8, !tbaa !61
  %40 = icmp ne ptr %39, null
  br i1 %40, label %41, label %45

41:                                               ; preds = %32
  %42 = load ptr, ptr %3, align 8, !tbaa !59
  %43 = getelementptr inbounds nuw %struct.AVCodecInternal, ptr %42, i32 0, i32 19
  %44 = load ptr, ptr %43, align 8, !tbaa !61
  call void @av_frame_unref(ptr noundef %44)
  br label %45

45:                                               ; preds = %41, %32
  %46 = load ptr, ptr %3, align 8, !tbaa !59
  %47 = getelementptr inbounds nuw %struct.AVCodecInternal, ptr %46, i32 0, i32 18
  %48 = load ptr, ptr %47, align 8, !tbaa !68
  %49 = icmp ne ptr %48, null
  br i1 %49, label %50, label %54

50:                                               ; preds = %45
  %51 = load ptr, ptr %3, align 8, !tbaa !59
  %52 = getelementptr inbounds nuw %struct.AVCodecInternal, ptr %51, i32 0, i32 18
  %53 = load ptr, ptr %52, align 8, !tbaa !68
  call void @av_packet_unref(ptr noundef %53)
  br label %54

54:                                               ; preds = %50, %45
  %55 = load ptr, ptr %2, align 8, !tbaa !4
  %56 = getelementptr inbounds nuw %struct.AVCodecContext, ptr %55, i32 0, i32 118
  %57 = load i32, ptr %56, align 8, !tbaa !97
  %58 = and i32 %57, 1
  %59 = icmp ne i32 %58, 0
  br i1 %59, label %60, label %67

60:                                               ; preds = %54
  %61 = load ptr, ptr %3, align 8, !tbaa !59
  %62 = getelementptr inbounds nuw %struct.AVCodecInternal, ptr %61, i32 0, i32 1
  %63 = load i32, ptr %62, align 4, !tbaa !111
  %64 = icmp ne i32 %63, 0
  br i1 %64, label %67, label %65

65:                                               ; preds = %60
  %66 = load ptr, ptr %2, align 8, !tbaa !4
  call void @ff_thread_flush(ptr noundef %66)
  br label %84

67:                                               ; preds = %60, %54
  %68 = load ptr, ptr %2, align 8, !tbaa !4
  %69 = getelementptr inbounds nuw %struct.AVCodecContext, ptr %68, i32 0, i32 3
  %70 = load ptr, ptr %69, align 8, !tbaa !24
  %71 = call ptr @ffcodec(ptr noundef %70)
  %72 = getelementptr inbounds nuw %struct.FFCodec, ptr %71, i32 0, i32 9
  %73 = load ptr, ptr %72, align 8, !tbaa !112
  %74 = icmp ne ptr %73, null
  br i1 %74, label %75, label %83

75:                                               ; preds = %67
  %76 = load ptr, ptr %2, align 8, !tbaa !4
  %77 = getelementptr inbounds nuw %struct.AVCodecContext, ptr %76, i32 0, i32 3
  %78 = load ptr, ptr %77, align 8, !tbaa !24
  %79 = call ptr @ffcodec(ptr noundef %78)
  %80 = getelementptr inbounds nuw %struct.FFCodec, ptr %79, i32 0, i32 9
  %81 = load ptr, ptr %80, align 8, !tbaa !112
  %82 = load ptr, ptr %2, align 8, !tbaa !4
  call void %81(ptr noundef %82)
  br label %83

83:                                               ; preds = %75, %67
  br label %84

84:                                               ; preds = %83, %65
  store i32 0, ptr %5, align 4
  br label %85

85:                                               ; preds = %84, %27
  call void @llvm.lifetime.end.p0(i64 8, ptr %3) #13
  %86 = load i32, ptr %5, align 4
  switch i32 %86, label %88 [
    i32 0, label %87
    i32 1, label %87
  ]

87:                                               ; preds = %85, %85
  ret void

88:                                               ; preds = %85
  unreachable
}