; Function Attrs: nounwind uwtable
define void @avcodec_flush_buffers(ptr noundef %0) local_unnamed_addr #0 {
  %2 = getelementptr inbounds nuw i8, ptr %0, i64 40
  %3 = load ptr, ptr %2, align 8, !tbaa !11
  %4 = getelementptr inbounds nuw i8, ptr %0, i64 16
  %5 = load ptr, ptr %4, align 8, !tbaa !31
  %6 = tail call i32 @av_codec_is_encoder(ptr noundef %5) #12
  %.not = icmp eq i32 %6, 0
  br i1 %.not, label %13, label %7

7:                                                ; preds = %1
  %8 = load ptr, ptr %4, align 8, !tbaa !31
  %9 = getelementptr inbounds nuw i8, ptr %8, i64 24
  %10 = load i32, ptr %9, align 8, !tbaa !73
  %11 = and i32 %10, 2097152
  %.not21.not = icmp eq i32 %11, 0
  br i1 %.not21.not, label %.thread, label %12

.thread:                                          ; preds = %7
  tail call void (ptr, i32, ptr, ...) @av_log(ptr noundef nonnull %0, i32 noundef 24, ptr noundef nonnull @.str.21) #12
  br label %37

12:                                               ; preds = %7
  tail call void @ff_encode_flush_buffers(ptr noundef nonnull %0) #12
  br label %14

13:                                               ; preds = %1
  tail call void @ff_decode_flush_buffers(ptr noundef nonnull %0) #12
  br label %14

14:                                               ; preds = %12, %13
  %15 = getelementptr inbounds nuw i8, ptr %3, i64 120
  store i32 0, ptr %15, align 8, !tbaa !92
  %16 = getelementptr inbounds nuw i8, ptr %3, i64 144
  store i32 0, ptr %16, align 8, !tbaa !93
  %17 = getelementptr inbounds nuw i8, ptr %3, i64 136
  %18 = load ptr, ptr %17, align 8, !tbaa !48
  %.not22 = icmp eq ptr %18, null
  br i1 %.not22, label %20, label %19

19:                                               ; preds = %14
  tail call void @av_frame_unref(ptr noundef nonnull %18) #12
  br label %20

20:                                               ; preds = %19, %14
  %21 = getelementptr inbounds nuw i8, ptr %3, i64 128
  %22 = load ptr, ptr %21, align 8, !tbaa !55
  %.not23 = icmp eq ptr %22, null
  br i1 %.not23, label %24, label %23

23:                                               ; preds = %20
  tail call void @av_packet_unref(ptr noundef nonnull %22) #12
  br label %24

24:                                               ; preds = %23, %20
  %25 = getelementptr inbounds nuw i8, ptr %0, i64 664
  %26 = load i32, ptr %25, align 8, !tbaa !81
  %27 = and i32 %26, 1
  %.not24 = icmp eq i32 %27, 0
  br i1 %.not24, label %32, label %28

28:                                               ; preds = %24
  %29 = getelementptr inbounds nuw i8, ptr %3, i64 4
  %30 = load i32, ptr %29, align 4, !tbaa !94
  %.not25 = icmp eq i32 %30, 0
  br i1 %.not25, label %31, label %32

31:                                               ; preds = %28
  tail call void @ff_thread_flush(ptr noundef nonnull %0) #12
  br label %37

32:                                               ; preds = %28, %24
  %33 = load ptr, ptr %4, align 8, !tbaa !31
  %34 = getelementptr inbounds nuw i8, ptr %33, i64 152
  %35 = load ptr, ptr %34, align 8, !tbaa !95
  %.not26 = icmp eq ptr %35, null
  br i1 %.not26, label %37, label %36

36:                                               ; preds = %32
  tail call void %35(ptr noundef nonnull %0) #12
  br label %37

37:                                               ; preds = %.thread, %31, %36, %32
  ret void
}